target datalayout = "e-m:e-p270:32:32-p271:32:32-p272:64:64-i64:64-i128:128-f80:128-n8:16:32:64-S128"
target triple = "x86_64-pc-linux-gnu"

%struct.attr_stack = type { ptr, ptr, i64, i32, i32, ptr }

@.str.4 = private unnamed_addr constant [7 x i8] c"attr.c\00", align 1
@.str.14 = private unnamed_addr constant [1 x i8] zeroinitializer, align 1
@git_gettext_enabled = external global i32, align 4
@.str.19 = private unnamed_addr constant [27 x i8] c"size_t overflow: %lu * %lu\00", align 1
@.str.27 = private unnamed_addr constant [33 x i8] c"negative growth in ALLOC_GROW_BY\00", align 1
@.str.33 = private unnamed_addr constant [46 x i8] c"ignoring overly large gitattributes blob '%s'\00", align 1

; Function Attrs: inlinehint nounwind uwtable
define internal i64 @st_mult(i64 noundef %0, i64 noundef %1) #5 {
  %3 = alloca i64, align 8
  %4 = alloca i64, align 8
  store i64 %0, ptr %3, align 8, !tbaa !11
  store i64 %1, ptr %4, align 8, !tbaa !11
  %5 = load i64, ptr %3, align 8, !tbaa !11
  %6 = icmp ne i64 %5, 0
  br i1 %6, label %7, label %15

7:                                                ; preds = %2
  %8 = load i64, ptr %4, align 8, !tbaa !11
  %9 = load i64, ptr %3, align 8, !tbaa !11
  %10 = udiv i64 -1, %9
  %11 = icmp ugt i64 %8, %10
  br i1 %11, label %12, label %15

12:                                               ; preds = %7
  %13 = load i64, ptr %3, align 8, !tbaa !11
  %14 = load i64, ptr %4, align 8, !tbaa !11
  call void (ptr, ...) @die(ptr noundef @.str.19, i64 noundef %13, i64 noundef %14) #12
  unreachable

15:                                               ; preds = %7, %2
  %16 = load i64, ptr %3, align 8, !tbaa !11
  %17 = load i64, ptr %4, align 8, !tbaa !11
  %18 = mul i64 %16, %17
  ret i64 %18
}

; Function Attrs: nounwind uwtable
define internal void @handle_attr_line(ptr noundef %0, ptr noundef %1, ptr noundef %2, i32 noundef %3, i32 noundef %4) #0 {
  %6 = alloca ptr, align 8
  %7 = alloca ptr, align 8
  %8 = alloca ptr, align 8
  %9 = alloca i32, align 4
  %10 = alloca i32, align 4
  %11 = alloca ptr, align 8
  %12 = alloca i32, align 4
  %13 = alloca i64, align 8
  store ptr %0, ptr %6, align 8, !tbaa !56
  store ptr %1, ptr %7, align 8, !tbaa !9
  store ptr %2, ptr %8, align 8, !tbaa !9
  store i32 %3, ptr %9, align 4, !tbaa !13
  store i32 %4, ptr %10, align 4, !tbaa !13
  call void @llvm.lifetime.start.p0(i64 8, ptr %11) #11
  %14 = load ptr, ptr %7, align 8, !tbaa !9
  %15 = load ptr, ptr %8, align 8, !tbaa !9
  %16 = load i32, ptr %9, align 4, !tbaa !13
  %17 = load i32, ptr %10, align 4, !tbaa !13
  %18 = call ptr @parse_attr_line(ptr noundef %14, ptr noundef %15, i32 noundef %16, i32 noundef %17)
  store ptr %18, ptr %11, align 8, !tbaa !15
  %19 = load ptr, ptr %11, align 8, !tbaa !15
  %20 = icmp ne ptr %19, null
  br i1 %20, label %22, label %21

21:                                               ; preds = %5
  store i32 1, ptr %12, align 4
  br label %107

22:                                               ; preds = %5
  br label %23

23:                                               ; preds = %22
  call void @llvm.lifetime.start.p0(i64 8, ptr %13) #11
  %24 = load ptr, ptr %6, align 8, !tbaa !56
  %25 = getelementptr inbounds nuw %struct.attr_stack, ptr %24, i32 0, i32 3
  %26 = load i32, ptr %25, align 8, !tbaa !95
  %27 = add i32 %26, 1
  %28 = zext i32 %27 to i64
  store i64 %28, ptr %13, align 8, !tbaa !11
  %29 = load i64, ptr %13, align 8, !tbaa !11
  %30 = load ptr, ptr %6, align 8, !tbaa !56
  %31 = getelementptr inbounds nuw %struct.attr_stack, ptr %30, i32 0, i32 3
  %32 = load i32, ptr %31, align 8, !tbaa !95
  %33 = zext i32 %32 to i64
  %34 = icmp ult i64 %29, %33
  br i1 %34, label %35, label %36

35:                                               ; preds = %23
  call void (ptr, i32, ptr, ...) @BUG_fl(ptr noundef @.str.4, i32 noundef 654, ptr noundef @.str.27) #12
  unreachable

36:                                               ; preds = %23
  br label %37

37:                                               ; preds = %36
  %38 = load i64, ptr %13, align 8, !tbaa !11
  %39 = load ptr, ptr %6, align 8, !tbaa !56
  %40 = getelementptr inbounds nuw %struct.attr_stack, ptr %39, i32 0, i32 4
  %41 = load i32, ptr %40, align 4, !tbaa !127
  %42 = zext i32 %41 to i64
  %43 = icmp ugt i64 %38, %42
  br i1 %43, label %44, label %80

44:                                               ; preds = %37
  %45 = load ptr, ptr %6, align 8, !tbaa !56
  %46 = getelementptr inbounds nuw %struct.attr_stack, ptr %45, i32 0, i32 4
  %47 = load i32, ptr %46, align 4, !tbaa !127
  %48 = add i32 %47, 16
  %49 = mul i32 %48, 3
  %50 = udiv i32 %49, 2
  %51 = zext i32 %50 to i64
  %52 = load i64, ptr %13, align 8, !tbaa !11
  %53 = icmp ult i64 %51, %52
  br i1 %53, label %54, label %59

54:                                               ; preds = %44
  %55 = load i64, ptr %13, align 8, !tbaa !11
  %56 = trunc i64 %55 to i32
  %57 = load ptr, ptr %6, align 8, !tbaa !56
  %58 = getelementptr inbounds nuw %struct.attr_stack, ptr %57, i32 0, i32 4
  store i32 %56, ptr %58, align 4, !tbaa !127
  br label %68

59:                                               ; preds = %44
  %60 = load ptr, ptr %6, align 8, !tbaa !56
  %61 = getelementptr inbounds nuw %struct.attr_stack, ptr %60, i32 0, i32 4
  %62 = load i32, ptr %61, align 4, !tbaa !127
  %63 = add i32 %62, 16
  %64 = mul i32 %63, 3
  %65 = udiv i32 %64, 2
  %66 = load ptr, ptr %6, align 8, !tbaa !56
  %67 = getelementptr inbounds nuw %struct.attr_stack, ptr %66, i32 0, i32 4
  store i32 %65, ptr %67, align 4, !tbaa !127
  br label %68

68:                                               ; preds = %59, %54
  %69 = load ptr, ptr %6, align 8, !tbaa !56
  %70 = getelementptr inbounds nuw %struct.attr_stack, ptr %69, i32 0, i32 5
  %71 = load ptr, ptr %70, align 8, !tbaa !96
  %72 = load ptr, ptr %6, align 8, !tbaa !56
  %73 = getelementptr inbounds nuw %struct.attr_stack, ptr %72, i32 0, i32 4
  %74 = load i32, ptr %73, align 4, !tbaa !127
  %75 = zext i32 %74 to i64
  %76 = call i64 @st_mult(i64 noundef 8, i64 noundef %75)
  %77 = call ptr @xrealloc(ptr noundef %71, i64 noundef %76)
  %78 = load ptr, ptr %6, align 8, !tbaa !56
  %79 = getelementptr inbounds nuw %struct.attr_stack, ptr %78, i32 0, i32 5
  store ptr %77, ptr %79, align 8, !tbaa !96
  br label %80

80:                                               ; preds = %68, %37
  br label %81

81:                                               ; preds = %80
  br label %82

82:                                               ; preds = %81
  %83 = load ptr, ptr %6, align 8, !tbaa !56
  %84 = getelementptr inbounds nuw %struct.attr_stack, ptr %83, i32 0, i32 5
  %85 = load ptr, ptr %84, align 8, !tbaa !96
  %86 = load ptr, ptr %6, align 8, !tbaa !56
  %87 = getelementptr inbounds nuw %struct.attr_stack, ptr %86, i32 0, i32 3
  %88 = load i32, ptr %87, align 8, !tbaa !95
  %89 = zext i32 %88 to i64
  %90 = getelementptr inbounds nuw ptr, ptr %85, i64 %89
  call void @llvm.memset.p0.i64(ptr align 8 %90, i8 0, i64 8, i1 false)
  %91 = load i64, ptr %13, align 8, !tbaa !11
  %92 = trunc i64 %91 to i32
  %93 = load ptr, ptr %6, align 8, !tbaa !56
  %94 = getelementptr inbounds nuw %struct.attr_stack, ptr %93, i32 0, i32 3
  store i32 %92, ptr %94, align 8, !tbaa !95
  call void @llvm.lifetime.end.p0(i64 8, ptr %13) #11
  br label %95

95:                                               ; preds = %82
  br label %96

96:                                               ; preds = %95
  %97 = load ptr, ptr %11, align 8, !tbaa !15
  %98 = load ptr, ptr %6, align 8, !tbaa !56
  %99 = getelementptr inbounds nuw %struct.attr_stack, ptr %98, i32 0, i32 5
  %100 = load ptr, ptr %99, align 8, !tbaa !96
  %101 = load ptr, ptr %6, align 8, !tbaa !56
  %102 = getelementptr inbounds nuw %struct.attr_stack, ptr %101, i32 0, i32 3
  %103 = load i32, ptr %102, align 8, !tbaa !95
  %104 = sub i32 %103, 1
  %105 = zext i32 %104 to i64
  %106 = getelementptr inbounds nuw ptr, ptr %100, i64 %105
  store ptr %97, ptr %106, align 8, !tbaa !15
  store i32 0, ptr %12, align 4
  br label %107

107:                                              ; preds = %96, %21
  call void @llvm.lifetime.end.p0(i64 8, ptr %11) #11
  %108 = load i32, ptr %12, align 4
  switch i32 %108, label %110 [
    i32 0, label %109
    i32 1, label %109
  ]

109:                                              ; preds = %107, %107
  ret void

110:                                              ; preds = %107
  unreachable
}

; Function Attrs: inlinehint nounwind uwtable
define internal ptr @_(ptr noundef %0) #5 {
  %2 = alloca ptr, align 8
  %3 = alloca ptr, align 8
  store ptr %0, ptr %3, align 8, !tbaa !9
  %4 = load ptr, ptr %3, align 8, !tbaa !9
  %5 = load i8, ptr %4, align 1, !tbaa !17
  %6 = icmp ne i8 %5, 0
  br i1 %6, label %8, label %7

7:                                                ; preds = %1
  store ptr @.str.14, ptr %2, align 8
  br label %16

8:                                                ; preds = %1
  %9 = load i32, ptr @git_gettext_enabled, align 4, !tbaa !13
  %10 = icmp ne i32 %9, 0
  br i1 %10, label %13, label %11

11:                                               ; preds = %8
  %12 = load ptr, ptr %3, align 8, !tbaa !9
  store ptr %12, ptr %2, align 8
  br label %16

13:                                               ; preds = %8
  %14 = load ptr, ptr %3, align 8, !tbaa !9
  %15 = call ptr @dcgettext(ptr noundef null, ptr noundef %14, i32 noundef 5) #11
  store ptr %15, ptr %2, align 8
  br label %16

16:                                               ; preds = %13, %11, %7
  %17 = load ptr, ptr %2, align 8
  ret ptr %17
}

; Function Attrs: nounwind uwtable
define internal ptr @read_attr_from_buf(ptr noundef %0, i64 noundef %1, ptr noundef %2, i32 noundef %3) #0 {
  %5 = alloca ptr, align 8
  %6 = alloca ptr, align 8
  %7 = alloca i64, align 8
  %8 = alloca ptr, align 8
  %9 = alloca i32, align 4
  %10 = alloca ptr, align 8
  %11 = alloca ptr, align 8
  %12 = alloca i32, align 4
  %13 = alloca i32, align 4
  %14 = alloca ptr, align 8
  %15 = alloca i32, align 4
  store ptr %0, ptr %6, align 8, !tbaa !9
  store i64 %1, ptr %7, align 8, !tbaa !11
  store ptr %2, ptr %8, align 8, !tbaa !9
  store i32 %3, ptr %9, align 4, !tbaa !13
  call void @llvm.lifetime.start.p0(i64 8, ptr %10) #11
  call void @llvm.lifetime.start.p0(i64 8, ptr %11) #11
  call void @llvm.lifetime.start.p0(i64 4, ptr %12) #11
  store i32 0, ptr %12, align 4, !tbaa !13
  %16 = load ptr, ptr %6, align 8, !tbaa !9
  %17 = icmp ne ptr %16, null
  br i1 %17, label %19, label %18

18:                                               ; preds = %4
  store ptr null, ptr %5, align 8
  store i32 1, ptr %13, align 4
  br label %55

19:                                               ; preds = %4
  %20 = load i64, ptr %7, align 8, !tbaa !11
  %21 = icmp uge i64 %20, 104857600
  br i1 %21, label %22, label %26

22:                                               ; preds = %19
  %23 = call ptr @_(ptr noundef @.str.33)
  %24 = load ptr, ptr %8, align 8, !tbaa !9
  call void (ptr, ...) @warning(ptr noundef %23, ptr noundef %24)
  %25 = load ptr, ptr %6, align 8, !tbaa !9
  call void @free(ptr noundef %25) #11
  store ptr null, ptr %5, align 8
  store i32 1, ptr %13, align 4
  br label %55

26:                                               ; preds = %19
  %27 = call ptr @xcalloc(i64 noundef 1, i64 noundef 40)
  store ptr %27, ptr %10, align 8, !tbaa !56
  %28 = load ptr, ptr %6, align 8, !tbaa !9
  store ptr %28, ptr %11, align 8, !tbaa !9
  br label %29

29:                                               ; preds = %33, %26
  %30 = load ptr, ptr %11, align 8, !tbaa !9
  %31 = load i8, ptr %30, align 1, !tbaa !17
  %32 = icmp ne i8 %31, 0
  br i1 %32, label %33, label %52

33:                                               ; preds = %29
  call void @llvm.lifetime.start.p0(i64 8, ptr %14) #11
  call void @llvm.lifetime.start.p0(i64 4, ptr %15) #11
  %34 = load ptr, ptr %11, align 8, !tbaa !9
  %35 = call ptr @strchrnul(ptr noundef %34, i32 noundef 10) #10
  store ptr %35, ptr %14, align 8, !tbaa !9
  %36 = load ptr, ptr %14, align 8, !tbaa !9
  %37 = load i8, ptr %36, align 1, !tbaa !17
  %38 = sext i8 %37 to i32
  %39 = icmp eq i32 %38, 10
  %40 = zext i1 %39 to i32
  store i32 %40, ptr %15, align 4, !tbaa !13
  %41 = load ptr, ptr %14, align 8, !tbaa !9
  store i8 0, ptr %41, align 1, !tbaa !17
  %42 = load ptr, ptr %10, align 8, !tbaa !56
  %43 = load ptr, ptr %11, align 8, !tbaa !9
  %44 = load ptr, ptr %8, align 8, !tbaa !9
  %45 = load i32, ptr %12, align 4, !tbaa !13
  %46 = add nsw i32 %45, 1
  store i32 %46, ptr %12, align 4, !tbaa !13
  %47 = load i32, ptr %9, align 4, !tbaa !13
  call void @handle_attr_line(ptr noundef %42, ptr noundef %43, ptr noundef %44, i32 noundef %46, i32 noundef %47)
  %48 = load ptr, ptr %14, align 8, !tbaa !9
  %49 = load i32, ptr %15, align 4, !tbaa !13
  %50 = sext i32 %49 to i64
  %51 = getelementptr inbounds i8, ptr %48, i64 %50
  store ptr %51, ptr %11, align 8, !tbaa !9
  call void @llvm.lifetime.end.p0(i64 4, ptr %15) #11
  call void @llvm.lifetime.end.p0(i64 8, ptr %14) #11
  br label %29, !llvm.loop !144

52:                                               ; preds = %29
  %53 = load ptr, ptr %6, align 8, !tbaa !9
  call void @free(ptr noundef %53) #11
  %54 = load ptr, ptr %10, align 8, !tbaa !56
  store ptr %54, ptr %5, align 8
  store i32 1, ptr %13, align 4
  br label %55

55:                                               ; preds = %52, %22, %18
  call void @llvm.lifetime.end.p0(i64 4, ptr %12) #11
  call void @llvm.lifetime.end.p0(i64 8, ptr %11) #11
  call void @llvm.lifetime.end.p0(i64 8, ptr %10) #11
  %56 = load ptr, ptr %5, align 8
  ret ptr %56
}