; Function Attrs: nounwind uwtable
define internal fastcc ptr @read_attr_from_buf(ptr noundef nonnull %0, i64 noundef %1, ptr noundef %2, i32 noundef range(i32 2, 4) %3) unnamed_addr #1 {
  %5 = icmp ugt i64 %1, 104857599
  br i1 %5, label %6, label %10

6:                                                ; preds = %4
  %7 = load i32, ptr @git_gettext_enabled, align 4, !tbaa !22
  %.not4.i = icmp eq i32 %7, 0
  br i1 %.not4.i, label %_.exit, label %8

8:                                                ; preds = %6
  %9 = tail call ptr @dcgettext(ptr noundef null, ptr noundef nonnull @.str.33, i32 noundef 5) #21
  br label %_.exit

_.exit:                                           ; preds = %6, %8
  %.0.i = phi ptr [ %9, %8 ], [ @.str.33, %6 ]
  tail call void (ptr, ...) @warning(ptr noundef %.0.i, ptr noundef %2) #21
  br label %._crit_edge

10:                                               ; preds = %4
  %11 = tail call ptr @xcalloc(i64 noundef 1, i64 noundef 40) #21
  %12 = load i8, ptr %0, align 1, !tbaa !4
  %.not21 = icmp eq i8 %12, 0
  br i1 %.not21, label %._crit_edge, label %.lr.ph

.lr.ph:                                           ; preds = %10
  %13 = getelementptr inbounds nuw i8, ptr %11, i64 24
  %14 = getelementptr inbounds nuw i8, ptr %11, i64 28
  %.phi.trans.insert.i = getelementptr inbounds nuw i8, ptr %11, i64 32
  br label %15

15:                                               ; preds = %.lr.ph, %handle_attr_line.exit
  %.01823 = phi ptr [ %0, %.lr.ph ], [ %43, %handle_attr_line.exit ]
  %.01922 = phi i32 [ 0, %.lr.ph ], [ %19, %handle_attr_line.exit ]
  %16 = tail call ptr @strchrnul(ptr noundef nonnull %.01823, i32 noundef 10) #20
  %17 = load i8, ptr %16, align 1, !tbaa !4
  %18 = icmp eq i8 %17, 10
  store i8 0, ptr %16, align 1, !tbaa !4
  %19 = add nuw nsw i32 %.01922, 1
  %20 = tail call ptr @parse_attr_line(ptr noundef nonnull %.01823, ptr noundef %2, i32 noundef range(i32 -2147483647, -2147483648) %19, i32 noundef range(i32 1, 4) %3)
  %.not.i = icmp eq ptr %20, null
  br i1 %.not.i, label %handle_attr_line.exit, label %21

21:                                               ; preds = %15
  %22 = load i32, ptr %13, align 8, !tbaa !65
  %23 = add i32 %22, 1
  %24 = zext i32 %22 to i64
  %25 = icmp eq i32 %22, -1
  br i1 %25, label %26, label %27

26:                                               ; preds = %21
  tail call void (ptr, i32, ptr, ...) @BUG_fl(ptr noundef nonnull @.str.4, i32 noundef 654, ptr noundef nonnull @.str.27) #22
  unreachable

27:                                               ; preds = %21
  %28 = load i32, ptr %14, align 4, !tbaa !106
  %29 = icmp ugt i32 %23, %28
  br i1 %29, label %st_mult.exit.i, label %._crit_edge.i

._crit_edge.i:                                    ; preds = %27
  %.pre.i = load ptr, ptr %.phi.trans.insert.i, align 8, !tbaa !66
  br label %37

st_mult.exit.i:                                   ; preds = %27
  %30 = mul i32 %28, 3
  %31 = add i32 %30, 48
  %32 = lshr i32 %31, 1
  %..i = tail call i32 @llvm.umax.i32(i32 %32, i32 %23)
  store i32 %..i, ptr %14, align 4, !tbaa !106
  %33 = zext i32 %..i to i64
  %34 = load ptr, ptr %.phi.trans.insert.i, align 8, !tbaa !66
  %35 = shl nuw nsw i64 %33, 3
  %36 = tail call ptr @xrealloc(ptr noundef %34, i64 noundef %35) #21
  store ptr %36, ptr %.phi.trans.insert.i, align 8, !tbaa !66
  %.pre28.i = load i32, ptr %13, align 8, !tbaa !65
  %.pre29.i = zext i32 %.pre28.i to i64
  br label %37

37:                                               ; preds = %st_mult.exit.i, %._crit_edge.i
  %.pre-phi.i = phi i64 [ %24, %._crit_edge.i ], [ %.pre29.i, %st_mult.exit.i ]
  %38 = phi ptr [ %.pre.i, %._crit_edge.i ], [ %36, %st_mult.exit.i ]
  %39 = getelementptr inbounds nuw ptr, ptr %38, i64 %.pre-phi.i
  store i64 0, ptr %39, align 8
  store i32 %23, ptr %13, align 8, !tbaa !65
  %40 = load ptr, ptr %.phi.trans.insert.i, align 8, !tbaa !66
  %41 = getelementptr inbounds nuw ptr, ptr %40, i64 %24
  store ptr %20, ptr %41, align 8, !tbaa !67
  br label %handle_attr_line.exit

handle_attr_line.exit:                            ; preds = %15, %37
  %42 = zext i1 %18 to i64
  %43 = getelementptr inbounds nuw i8, ptr %16, i64 %42
  %44 = load i8, ptr %43, align 1, !tbaa !4
  %.not = icmp eq i8 %44, 0
  br i1 %.not, label %._crit_edge, label %15, !llvm.loop !129

._crit_edge:                                      ; preds = %handle_attr_line.exit, %10, %_.exit
  %.0 = phi ptr [ null, %_.exit ], [ %11, %10 ], [ %11, %handle_attr_line.exit ]
  tail call void @free(ptr noundef nonnull %0) #21
  ret ptr %.0
}